; Function Attrs: mustprogress nounwind uwtable
define internal fastcc void @_ZL12emitRecordIDjPKcRN4llvm15BitstreamWriterERNS1_15SmallVectorImplImEE(i32 noundef %0, ptr nocapture noundef readonly %1, ptr noundef nonnull align 8 dereferenceable(152) %2, ptr noundef nonnull align 8 dereferenceable(16) %3) unnamed_addr #0 {
  %5 = tail call noundef i64 @_ZNK4llvm15SmallVectorBaseIjE4sizeEv(ptr noundef nonnull align 8 dereferenceable(16) %3) #25
  %6 = getelementptr inbounds nuw i8, ptr %3, i64 8
  store i32 0, ptr %6, align 8
  %7 = zext nneg i32 %0 to i64
  %8 = tail call noundef i64 @_ZNK4llvm15SmallVectorBaseIjE4sizeEv(ptr noundef nonnull align 8 dereferenceable(16) %3) #25
  %9 = add i64 %8, 1
  %10 = tail call noundef i64 @_ZNK4llvm15SmallVectorBaseIjE8capacityEv(ptr noundef nonnull align 8 dereferenceable(16) %3) #25
  %.not.i.i.i = icmp ugt i64 %9, %10
  br i1 %.not.i.i.i, label %11, label %_ZN4llvm23SmallVectorTemplateBaseImLb1EE9push_backEm.exit

11:                                               ; preds = %4
  %12 = getelementptr inbounds i8, ptr %3, i64 16
  tail call void @_ZN4llvm15SmallVectorBaseIjE8grow_podEPvmm(ptr noundef nonnull align 8 dereferenceable(16) %3, ptr noundef nonnull %12, i64 noundef %9, i64 noundef 8) #25
  br label %_ZN4llvm23SmallVectorTemplateBaseImLb1EE9push_backEm.exit

_ZN4llvm23SmallVectorTemplateBaseImLb1EE9push_backEm.exit: ; preds = %4, %11
  %13 = load ptr, ptr %3, align 8
  %14 = tail call noundef i64 @_ZNK4llvm15SmallVectorBaseIjE4sizeEv(ptr noundef nonnull align 8 dereferenceable(16) %3) #25
  %15 = getelementptr inbounds i64, ptr %13, i64 %14
  store i64 %7, ptr %15, align 1
  %16 = tail call noundef i64 @_ZNK4llvm15SmallVectorBaseIjE4sizeEv(ptr noundef nonnull align 8 dereferenceable(16) %3) #25
  %17 = add i64 %16, 1
  tail call void @_ZN4llvm15SmallVectorBaseIjE8set_sizeEm(ptr noundef nonnull align 8 dereferenceable(16) %3, i64 noundef %17) #25
  %18 = load i8, ptr %1, align 1
  %.not10 = icmp eq i8 %18, 0
  br i1 %.not10, label %._crit_edge, label %.lr.ph

.lr.ph:                                           ; preds = %_ZN4llvm23SmallVectorTemplateBaseImLb1EE9push_backEm.exit
  %19 = getelementptr inbounds i8, ptr %3, i64 16
  br label %20

20:                                               ; preds = %.lr.ph, %_ZN4llvm23SmallVectorTemplateBaseImLb1EE9push_backEm.exit9
  %21 = phi i8 [ %18, %.lr.ph ], [ %33, %_ZN4llvm23SmallVectorTemplateBaseImLb1EE9push_backEm.exit9 ]
  %.011 = phi ptr [ %1, %.lr.ph ], [ %22, %_ZN4llvm23SmallVectorTemplateBaseImLb1EE9push_backEm.exit9 ]
  %22 = getelementptr inbounds i8, ptr %.011, i64 1
  %23 = sext i8 %21 to i64
  %24 = tail call noundef i64 @_ZNK4llvm15SmallVectorBaseIjE4sizeEv(ptr noundef nonnull align 8 dereferenceable(16) %3) #25
  %25 = add i64 %24, 1
  %26 = tail call noundef i64 @_ZNK4llvm15SmallVectorBaseIjE8capacityEv(ptr noundef nonnull align 8 dereferenceable(16) %3) #25
  %.not.i.i.i8 = icmp ugt i64 %25, %26
  br i1 %.not.i.i.i8, label %27, label %_ZN4llvm23SmallVectorTemplateBaseImLb1EE9push_backEm.exit9

27:                                               ; preds = %20
  tail call void @_ZN4llvm15SmallVectorBaseIjE8grow_podEPvmm(ptr noundef nonnull align 8 dereferenceable(16) %3, ptr noundef nonnull %19, i64 noundef %25, i64 noundef 8) #25
  br label %_ZN4llvm23SmallVectorTemplateBaseImLb1EE9push_backEm.exit9

_ZN4llvm23SmallVectorTemplateBaseImLb1EE9push_backEm.exit9: ; preds = %20, %27
  %28 = load ptr, ptr %3, align 8
  %29 = tail call noundef i64 @_ZNK4llvm15SmallVectorBaseIjE4sizeEv(ptr noundef nonnull align 8 dereferenceable(16) %3) #25
  %30 = getelementptr inbounds i64, ptr %28, i64 %29
  store i64 %23, ptr %30, align 1
  %31 = tail call noundef i64 @_ZNK4llvm15SmallVectorBaseIjE4sizeEv(ptr noundef nonnull align 8 dereferenceable(16) %3) #25
  %32 = add i64 %31, 1
  tail call void @_ZN4llvm15SmallVectorBaseIjE8set_sizeEm(ptr noundef nonnull align 8 dereferenceable(16) %3, i64 noundef %32) #25
  %33 = load i8, ptr %22, align 1
  %.not = icmp eq i8 %33, 0
  br i1 %.not, label %._crit_edge, label %20, !llvm.loop !351

._crit_edge:                                      ; preds = %_ZN4llvm23SmallVectorTemplateBaseImLb1EE9push_backEm.exit9, %_ZN4llvm23SmallVectorTemplateBaseImLb1EE9push_backEm.exit
  tail call void @_ZN4llvm15BitstreamWriter10EmitRecordINS_15SmallVectorImplImEEEEvjRKT_j(ptr noundef nonnull align 8 dereferenceable(152) %2, i32 noundef 3, ptr noundef nonnull align 8 dereferenceable(16) %3, i32 noundef 0)
  ret void
}